target datalayout = "e-m:e-p270:32:32-p271:32:32-p272:64:64-i64:64-i128:128-f80:128-n8:16:32:64-S128"
target triple = "x86_64-pc-linux-gnu"

%struct.block_q8_K = type { float, [256 x i8], [16 x i16] }

; Function Attrs: nounwind uwtable
define void @dequantize_row_q8_K(ptr noalias noundef %0, ptr noalias noundef %1, i64 noundef %2) #0 {
  %4 = alloca ptr, align 8
  %5 = alloca ptr, align 8
  %6 = alloca i64, align 8
  %7 = alloca i64, align 8
  %8 = alloca i32, align 4
  %9 = alloca i32, align 4
  %10 = alloca i32, align 4
  store ptr %0, ptr %4, align 8, !tbaa !8
  store ptr %1, ptr %5, align 8, !tbaa !3
  store i64 %2, ptr %6, align 8, !tbaa !9
  call void @llvm.lifetime.start.p0(i64 8, ptr %7) #10
  %11 = load i64, ptr %6, align 8, !tbaa !9
  %12 = sdiv i64 %11, 256
  store i64 %12, ptr %7, align 8, !tbaa !9
  call void @llvm.lifetime.start.p0(i64 4, ptr %8) #10
  store i32 0, ptr %8, align 4, !tbaa !11
  br label %13

13:                                               ; preds = %49, %3
  %14 = load i32, ptr %8, align 4, !tbaa !11
  %15 = sext i32 %14 to i64
  %16 = load i64, ptr %7, align 8, !tbaa !9
  %17 = icmp slt i64 %15, %16
  br i1 %17, label %19, label %18

18:                                               ; preds = %13
  store i32 2, ptr %9, align 4
  call void @llvm.lifetime.end.p0(i64 4, ptr %8) #10
  br label %52

19:                                               ; preds = %13
  call void @llvm.lifetime.start.p0(i64 4, ptr %10) #10
  store i32 0, ptr %10, align 4, !tbaa !11
  br label %20

20:                                               ; preds = %45, %19
  %21 = load i32, ptr %10, align 4, !tbaa !11
  %22 = icmp slt i32 %21, 256
  br i1 %22, label %24, label %23

23:                                               ; preds = %20
  store i32 5, ptr %9, align 4
  call void @llvm.lifetime.end.p0(i64 4, ptr %10) #10
  br label %48

24:                                               ; preds = %20
  %25 = load ptr, ptr %4, align 8, !tbaa !8
  %26 = load i32, ptr %8, align 4, !tbaa !11
  %27 = sext i32 %26 to i64
  %28 = getelementptr inbounds %struct.block_q8_K, ptr %25, i64 %27
  %29 = getelementptr inbounds nuw %struct.block_q8_K, ptr %28, i32 0, i32 0
  %30 = load float, ptr %29, align 4, !tbaa !305
  %31 = load ptr, ptr %4, align 8, !tbaa !8
  %32 = load i32, ptr %8, align 4, !tbaa !11
  %33 = sext i32 %32 to i64
  %34 = getelementptr inbounds %struct.block_q8_K, ptr %31, i64 %33
  %35 = getelementptr inbounds nuw %struct.block_q8_K, ptr %34, i32 0, i32 1
  %36 = load i32, ptr %10, align 4, !tbaa !11
  %37 = sext i32 %36 to i64
  %38 = getelementptr inbounds [256 x i8], ptr %35, i64 0, i64 %37
  %39 = load i8, ptr %38, align 1, !tbaa !20
  %40 = sext i8 %39 to i32
  %41 = sitofp i32 %40 to float
  %42 = fmul float %30, %41
  %43 = load ptr, ptr %5, align 8, !tbaa !3
  %44 = getelementptr inbounds nuw float, ptr %43, i32 1
  store ptr %44, ptr %5, align 8, !tbaa !3
  store float %42, ptr %43, align 4, !tbaa !13
  br label %45

45:                                               ; preds = %24
  %46 = load i32, ptr %10, align 4, !tbaa !11
  %47 = add nsw i32 %46, 1
  store i32 %47, ptr %10, align 4, !tbaa !11
  br label %20, !llvm.loop !311

48:                                               ; preds = %23
  br label %49

49:                                               ; preds = %48
  %50 = load i32, ptr %8, align 4, !tbaa !11
  %51 = add nsw i32 %50, 1
  store i32 %51, ptr %8, align 4, !tbaa !11
  br label %13, !llvm.loop !312

52:                                               ; preds = %18
  call void @llvm.lifetime.end.p0(i64 8, ptr %7) #10
  ret void
}