; Function Attrs: nofree norecurse nosync nounwind memory(argmem: readwrite) uwtable
define void @dequantize_row_q8_K(ptr noalias noundef readonly captures(none) %0, ptr noalias noundef writeonly captures(none) %1, i64 noundef %2) local_unnamed_addr #0 {
  %4 = sdiv i64 %2, 256
  %5 = icmp sgt i64 %2, 255
  br i1 %5, label %.preheader, label %._crit_edge

.preheader:                                       ; preds = %3, %9
  %indvars.iv19 = phi i64 [ %indvars.iv.next20, %9 ], [ 0, %3 ]
  %.01216 = phi ptr [ %15, %9 ], [ %1, %3 ]
  %6 = getelementptr inbounds nuw %struct.block_q8_K, ptr %0, i64 %indvars.iv19
  %7 = load float, ptr %6, align 4, !tbaa !678
  %8 = getelementptr inbounds nuw i8, ptr %6, i64 4
  br label %10

._crit_edge:                                      ; preds = %9, %3
  ret void

9:                                                ; preds = %10
  %indvars.iv.next20 = add nuw nsw i64 %indvars.iv19, 1
  %exitcond22.not = icmp eq i64 %indvars.iv.next20, %4
  br i1 %exitcond22.not, label %._crit_edge, label %.preheader, !llvm.loop !683

10:                                               ; preds = %.preheader, %10
  %indvars.iv = phi i64 [ 0, %.preheader ], [ %indvars.iv.next, %10 ]
  %.114 = phi ptr [ %.01216, %.preheader ], [ %15, %10 ]
  %11 = getelementptr inbounds nuw [256 x i8], ptr %8, i64 0, i64 %indvars.iv
  %12 = load i8, ptr %11, align 1, !tbaa !13
  %13 = sitofp i8 %12 to float
  %14 = fmul float %7, %13
  %15 = getelementptr inbounds nuw i8, ptr %.114, i64 4
  store float %14, ptr %.114, align 4, !tbaa !8
  %indvars.iv.next = add nuw nsw i64 %indvars.iv, 1
  %exitcond.not = icmp eq i64 %indvars.iv.next, 256
  br i1 %exitcond.not, label %9, label %10, !llvm.loop !684
}